; Function Attrs: mustprogress nounwind uwtable
define hidden noundef zeroext i8 @_ZNK21Bytecode_loadconstant11result_typeEv(ptr nocapture noundef nonnull readonly align 8 dereferenceable(24) %0) local_unnamed_addr #2 align 2 {
  %2 = getelementptr inbounds i8, ptr %0, i64 8
  %3 = load i32, ptr %2, align 8
  %4 = sext i32 %3 to i64
  %5 = getelementptr inbounds [239 x i32], ptr @_ZN9Bytecodes10_java_codeE, i64 0, i64 %4
  %6 = load i32, ptr %5, align 4
  %7 = icmp eq i32 %6, 18
  %8 = load ptr, ptr %0, align 8
  %9 = getelementptr inbounds i8, ptr %8, i64 1
  br i1 %7, label %10, label %13

10:                                               ; preds = %1
  %11 = load i8, ptr %9, align 1
  %12 = zext i8 %11 to i32
  br label %_ZNK21Bytecode_loadconstant9raw_indexEv.exit.i

13:                                               ; preds = %1
  %14 = getelementptr inbounds [512 x i16], ptr @_ZN9Bytecodes6_flagsE, i64 0, i64 %4
  %15 = load i16, ptr %14, align 2
  %16 = and i16 %15, 128
  %.not.i.i.i = icmp eq i16 %16, 0
  %.0.i.i.i.i.i.i = load i16, ptr %9, align 1
  %17 = tail call i16 @llvm.bswap.i16(i16 %.0.i.i.i.i.i.i)
  %.0.i.i.i = select i1 %.not.i.i.i, i16 %17, i16 %.0.i.i.i.i.i.i
  %18 = zext i16 %.0.i.i.i to i32
  br label %_ZNK21Bytecode_loadconstant9raw_indexEv.exit.i

_ZNK21Bytecode_loadconstant9raw_indexEv.exit.i:   ; preds = %13, %10
  %.0.i.i = phi i32 [ %12, %10 ], [ %18, %13 ]
  %19 = icmp sgt i32 %3, 202
  %20 = getelementptr inbounds i8, ptr %0, i64 16
  %21 = load ptr, ptr %20, align 8
  %22 = getelementptr inbounds i8, ptr %21, i64 8
  %23 = load ptr, ptr %22, align 8
  %24 = getelementptr inbounds i8, ptr %23, i64 8
  %25 = load ptr, ptr %24, align 8
  br i1 %19, label %26, label %_ZNK21Bytecode_loadconstant10pool_indexEv.exit

26:                                               ; preds = %_ZNK21Bytecode_loadconstant9raw_indexEv.exit.i
  %27 = getelementptr inbounds i8, ptr %25, i64 16
  %28 = load ptr, ptr %27, align 8, !nonnull !6, !noundef !6
  %29 = getelementptr inbounds i8, ptr %28, i64 24
  %30 = load ptr, ptr %29, align 8
  %31 = getelementptr inbounds i8, ptr %30, i64 4
  %32 = zext nneg i32 %.0.i.i to i64
  %33 = getelementptr inbounds i16, ptr %31, i64 %32
  %34 = load i16, ptr %33, align 2
  %35 = zext i16 %34 to i32
  br label %_ZNK21Bytecode_loadconstant10pool_indexEv.exit

_ZNK21Bytecode_loadconstant10pool_indexEv.exit:   ; preds = %_ZNK21Bytecode_loadconstant9raw_indexEv.exit.i, %26
  %.0.i = phi i32 [ %35, %26 ], [ %.0.i.i, %_ZNK21Bytecode_loadconstant9raw_indexEv.exit.i ]
  %36 = tail call noundef zeroext i8 @_ZN12ConstantPool26basic_type_for_constant_atEi(ptr noundef nonnull align 8 dereferenceable(68) %25, i32 noundef %.0.i) #8
  ret i8 %36
}